(dp0
S'regre_average_loss_0'
p1
(lp2
cnumpy.core.multiarray
_reconstruct
p3
(cnumpy
ndarray
p4
(I0
tp5
S'b'
p6
tp7
Rp8
(I1
(tcnumpy
dtype
p9
(S'f4'
p10
I0
I1
tp11
Rp12
(I3
S'<'
p13
NNNI-1
I-1
I0
tp14
bI00
S'\xe5\x8b\x80:'
p15
tp16
bag3
(g4
(I0
tp17
g6
tp18
Rp19
(I1
(tg12
I00
S'\x93\xbf\xbf9'
p20
tp21
bag3
(g4
(I0
tp22
g6
tp23
Rp24
(I1
(tg12
I00
S'a\x99\x939'
p25
tp26
bag3
(g4
(I0
tp27
g6
tp28
Rp29
(I1
(tg12
I00
S'$\x03:9'
p30
tp31
bag3
(g4
(I0
tp32
g6
tp33
Rp34
(I1
(tg12
I00
S'\xb5h\x139'
p35
tp36
bag3
(g4
(I0
tp37
g6
tp38
Rp39
(I1
(tg12
I00
S'\x9d6\xec8'
p40
tp41
bag3
(g4
(I0
tp42
g6
tp43
Rp44
(I1
(tg12
I00
S'\xdf\x19\xe38'
p45
tp46
bag3
(g4
(I0
tp47
g6
tp48
Rp49
(I1
(tg12
I00
S'\xba\x05\xc58'
p50
tp51
bag3
(g4
(I0
tp52
g6
tp53
Rp54
(I1
(tg12
I00
S'\x92\xb2\xe68'
p55
tp56
basS'epoch'
p57
(lp58
I100
aI200
aI300
aI400
aI500
aI600
aI700
aI800
aI900
asS'class_average_loss'
p59
(lp60
g3
(g4
(I0
tp61
g6
tp62
Rp63
(I1
(tg12
I00
S'L\xe0\x0b>'
p64
tp65
bag3
(g4
(I0
tp66
g6
tp67
Rp68
(I1
(tg12
I00
S'\x1eF\xdc='
p69
tp70
bag3
(g4
(I0
tp71
g6
tp72
Rp73
(I1
(tg12
I00
S'\xbax\xaa='
p74
tp75
bag3
(g4
(I0
tp76
g6
tp77
Rp78
(I1
(tg12
I00
S'r\x18\x9f='
p79
tp80
bag3
(g4
(I0
tp81
g6
tp82
Rp83
(I1
(tg12
I00
S'\xf4\xe8\xc7='
p84
tp85
bag3
(g4
(I0
tp86
g6
tp87
Rp88
(I1
(tg12
I00
S'VG\xc7='
p89
tp90
bag3
(g4
(I0
tp91
g6
tp92
Rp93
(I1
(tg12
I00
S'\x89R\xa8='
p94
tp95
bag3
(g4
(I0
tp96
g6
tp97
Rp98
(I1
(tg12
I00
S'\xe7(\xc4='
p99
tp100
bag3
(g4
(I0
tp101
g6
tp102
Rp103
(I1
(tg12
I00
S'\xaa\xf1\xcb='
p104
tp105
basS'regre_average_loss_1'
p106
(lp107
g3
(g4
(I0
tp108
g6
tp109
Rp110
(I1
(tg12
I00
S'I\x02*='
p111
tp112
bag3
(g4
(I0
tp113
g6
tp114
Rp115
(I1
(tg12
I00
S'%\xbe\x13='
p116
tp117
bag3
(g4
(I0
tp118
g6
tp119
Rp120
(I1
(tg12
I00
S'\x11\x88\x06='
p121
tp122
bag3
(g4
(I0
tp123
g6
tp124
Rp125
(I1
(tg12
I00
S'\xd6\xb7\t='
p126
tp127
bag3
(g4
(I0
tp128
g6
tp129
Rp130
(I1
(tg12
I00
S';\xf1\x13='
p131
tp132
bag3
(g4
(I0
tp133
g6
tp134
Rp135
(I1
(tg12
I00
S'y$\x10='
p136
tp137
bag3
(g4
(I0
tp138
g6
tp139
Rp140
(I1
(tg12
I00
S'U\xe6\x12='
p141
tp142
bag3
(g4
(I0
tp143
g6
tp144
Rp145
(I1
(tg12
I00
S'\xbcY\x12='
p146
tp147
bag3
(g4
(I0
tp148
g6
tp149
Rp150
(I1
(tg12
I00
S'\xed/\x1d='
p151
tp152
basS'regre_average_loss_2'
p153
(lp154
g3
(g4
(I0
tp155
g6
tp156
Rp157
(I1
(tg12
I00
S'\xd0?\x9c='
p158
tp159
bag3
(g4
(I0
tp160
g6
tp161
Rp162
(I1
(tg12
I00
S'/O\x87='
p163
tp164
bag3
(g4
(I0
tp165
g6
tp166
Rp167
(I1
(tg12
I00
S'\xf2\x8ed='
p168
tp169
bag3
(g4
(I0
tp170
g6
tp171
Rp172
(I1
(tg12
I00
S'\xf4\x98i='
p173
tp174
bag3
(g4
(I0
tp175
g6
tp176
Rp177
(I1
(tg12
I00
S',\xecp='
p178
tp179
bag3
(g4
(I0
tp180
g6
tp181
Rp182
(I1
(tg12
I00
S'mEh='
p183
tp184
bag3
(g4
(I0
tp185
g6
tp186
Rp187
(I1
(tg12
I00
S'\x00\nf='
p188
tp189
bag3
(g4
(I0
tp190
g6
tp191
Rp192
(I1
(tg12
I00
S'\xe9Ef='
p193
tp194
bag3
(g4
(I0
tp195
g6
tp196
Rp197
(I1
(tg12
I00
S'\xed[r='
p198
tp199
bas.